target datalayout = "e-m:e-p270:32:32-p271:32:32-p272:64:64-i64:64-i128:128-f80:128-n8:16:32:64-S128"
target triple = "x86_64-pc-linux-gnu"

%struct.archive_write = type { %struct.archive, i32, i64, i64, ptr, i64, ptr, ptr, ptr, ptr, ptr, i32, i32, ptr, ptr, ptr, ptr, ptr, ptr, ptr, ptr, ptr, ptr, ptr, ptr, ptr, ptr }
%struct.archive = type { i32, i32, ptr, i32, ptr, i32, i32, ptr, %struct.archive_string, ptr, i32, i32, ptr, ptr, i64, i64, i64, i8, i64 }
%struct.archive_string = type { ptr, i64, i64 }

@.str = private unnamed_addr constant [32 x i8] c"archive_write_set_format_ar_bsd\00", align 1
@.str.1 = private unnamed_addr constant [9 x i8] c"ar (BSD)\00", align 1
@.str.4 = private unnamed_addr constant [23 x i8] c"Can't allocate ar data\00", align 1
@.str.5 = private unnamed_addr constant [3 x i8] c"ar\00", align 1

; Function Attrs: nounwind uwtable
define internal i32 @archive_write_set_format_ar(ptr noundef %0) #0 {
  %2 = alloca i32, align 4
  %3 = alloca ptr, align 8
  %4 = alloca ptr, align 8
  %5 = alloca i32, align 4
  store ptr %0, ptr %3, align 8, !tbaa !9
  call void @llvm.lifetime.start.p0(i64 8, ptr %4) #9
  %6 = load ptr, ptr %3, align 8, !tbaa !9
  %7 = getelementptr inbounds nuw %struct.archive_write, ptr %6, i32 0, i32 23
  %8 = load ptr, ptr %7, align 8, !tbaa !23
  %9 = icmp ne ptr %8, null
  br i1 %9, label %10, label %16

10:                                               ; preds = %1
  %11 = load ptr, ptr %3, align 8, !tbaa !9
  %12 = getelementptr inbounds nuw %struct.archive_write, ptr %11, i32 0, i32 23
  %13 = load ptr, ptr %12, align 8, !tbaa !23
  %14 = load ptr, ptr %3, align 8, !tbaa !9
  %15 = call i32 %13(ptr noundef %14)
  br label %16

16:                                               ; preds = %10, %1
  %17 = call noalias ptr @calloc(i64 noundef 1, i64 noundef 40) #10
  store ptr %17, ptr %4, align 8, !tbaa !24
  %18 = load ptr, ptr %4, align 8, !tbaa !24
  %19 = icmp eq ptr %18, null
  br i1 %19, label %20, label %23

20:                                               ; preds = %16
  %21 = load ptr, ptr %3, align 8, !tbaa !9
  %22 = getelementptr inbounds nuw %struct.archive_write, ptr %21, i32 0, i32 0
  call void (ptr, i32, ptr, ...) @archive_set_error(ptr noundef %22, i32 noundef 12, ptr noundef @.str.4)
  store i32 -30, ptr %2, align 4
  store i32 1, ptr %5, align 4
  br label %39

23:                                               ; preds = %16
  %24 = load ptr, ptr %4, align 8, !tbaa !24
  %25 = load ptr, ptr %3, align 8, !tbaa !9
  %26 = getelementptr inbounds nuw %struct.archive_write, ptr %25, i32 0, i32 15
  store ptr %24, ptr %26, align 8, !tbaa !26
  %27 = load ptr, ptr %3, align 8, !tbaa !9
  %28 = getelementptr inbounds nuw %struct.archive_write, ptr %27, i32 0, i32 16
  store ptr @.str.5, ptr %28, align 8, !tbaa !27
  %29 = load ptr, ptr %3, align 8, !tbaa !9
  %30 = getelementptr inbounds nuw %struct.archive_write, ptr %29, i32 0, i32 20
  store ptr @archive_write_ar_header, ptr %30, align 8, !tbaa !28
  %31 = load ptr, ptr %3, align 8, !tbaa !9
  %32 = getelementptr inbounds nuw %struct.archive_write, ptr %31, i32 0, i32 21
  store ptr @archive_write_ar_data, ptr %32, align 8, !tbaa !29
  %33 = load ptr, ptr %3, align 8, !tbaa !9
  %34 = getelementptr inbounds nuw %struct.archive_write, ptr %33, i32 0, i32 22
  store ptr @archive_write_ar_close, ptr %34, align 8, !tbaa !30
  %35 = load ptr, ptr %3, align 8, !tbaa !9
  %36 = getelementptr inbounds nuw %struct.archive_write, ptr %35, i32 0, i32 23
  store ptr @archive_write_ar_free, ptr %36, align 8, !tbaa !23
  %37 = load ptr, ptr %3, align 8, !tbaa !9
  %38 = getelementptr inbounds nuw %struct.archive_write, ptr %37, i32 0, i32 19
  store ptr @archive_write_ar_finish_entry, ptr %38, align 8, !tbaa !31
  store i32 0, ptr %2, align 4
  store i32 1, ptr %5, align 4
  br label %39

39:                                               ; preds = %23, %20
  call void @llvm.lifetime.end.p0(i64 8, ptr %4) #9
  %40 = load i32, ptr %2, align 4
  ret i32 %40
}

; Function Attrs: nounwind uwtable
define dso_local i32 @archive_write_set_format_ar_bsd(ptr noundef %0) #0 {
  %2 = alloca i32, align 4
  %3 = alloca ptr, align 8
  %4 = alloca ptr, align 8
  %5 = alloca i32, align 4
  %6 = alloca i32, align 4
  %7 = alloca i32, align 4
  store ptr %0, ptr %3, align 8, !tbaa !4
  call void @llvm.lifetime.start.p0(i64 8, ptr %4) #9
  %8 = load ptr, ptr %3, align 8, !tbaa !4
  store ptr %8, ptr %4, align 8, !tbaa !9
  call void @llvm.lifetime.start.p0(i64 4, ptr %5) #9
  br label %9

9:                                                ; preds = %1
  call void @llvm.lifetime.start.p0(i64 4, ptr %6) #9
  %10 = load ptr, ptr %3, align 8, !tbaa !4
  %11 = call i32 @__archive_check_magic(ptr noundef %10, i32 noundef -1329217314, i32 noundef 1, ptr noundef @.str)
  store i32 %11, ptr %6, align 4, !tbaa !11
  %12 = load i32, ptr %6, align 4, !tbaa !11
  %13 = icmp eq i32 %12, -30
  br i1 %13, label %14, label %15

14:                                               ; preds = %9
  store i32 -30, ptr %2, align 4
  store i32 1, ptr %7, align 4
  br label %16

15:                                               ; preds = %9
  store i32 0, ptr %7, align 4
  br label %16

16:                                               ; preds = %15, %14
  call void @llvm.lifetime.end.p0(i64 4, ptr %6) #9
  %17 = load i32, ptr %7, align 4
  switch i32 %17, label %34 [
    i32 0, label %18
  ]

18:                                               ; preds = %16
  br label %19

19:                                               ; preds = %18
  br label %20

20:                                               ; preds = %19
  %21 = load ptr, ptr %4, align 8, !tbaa !9
  %22 = call i32 @archive_write_set_format_ar(ptr noundef %21)
  store i32 %22, ptr %5, align 4, !tbaa !11
  %23 = load i32, ptr %5, align 4, !tbaa !11
  %24 = icmp eq i32 %23, 0
  br i1 %24, label %25, label %32

25:                                               ; preds = %20
  %26 = load ptr, ptr %4, align 8, !tbaa !9
  %27 = getelementptr inbounds nuw %struct.archive_write, ptr %26, i32 0, i32 0
  %28 = getelementptr inbounds nuw %struct.archive, ptr %27, i32 0, i32 3
  store i32 458754, ptr %28, align 8, !tbaa !13
  %29 = load ptr, ptr %4, align 8, !tbaa !9
  %30 = getelementptr inbounds nuw %struct.archive_write, ptr %29, i32 0, i32 0
  %31 = getelementptr inbounds nuw %struct.archive, ptr %30, i32 0, i32 4
  store ptr @.str.1, ptr %31, align 8, !tbaa !22
  br label %32

32:                                               ; preds = %25, %20
  %33 = load i32, ptr %5, align 4, !tbaa !11
  store i32 %33, ptr %2, align 4
  store i32 1, ptr %7, align 4
  br label %34

34:                                               ; preds = %32, %16
  call void @llvm.lifetime.end.p0(i64 4, ptr %5) #9
  call void @llvm.lifetime.end.p0(i64 8, ptr %4) #9
  %35 = load i32, ptr %2, align 4
  ret i32 %35
}