; Function Attrs: nounwind uwtable
define dso_local range(i32 -30, 1) i32 @archive_write_set_format_ar_bsd(ptr noundef %0) local_unnamed_addr #0 {
  %2 = tail call i32 @__archive_check_magic(ptr noundef %0, i32 noundef -1329217314, i32 noundef 1, ptr noundef nonnull @.str) #12
  %.not = icmp eq i32 %2, -30
  br i1 %.not, label %20, label %3

3:                                                ; preds = %1
  %4 = getelementptr inbounds nuw i8, ptr %0, i64 312
  %5 = load ptr, ptr %4, align 8, !tbaa !4
  %.not.i = icmp eq ptr %5, null
  br i1 %.not.i, label %8, label %6

6:                                                ; preds = %3
  %7 = tail call i32 %5(ptr noundef nonnull %0) #12
  br label %8

8:                                                ; preds = %6, %3
  %9 = tail call noalias dereferenceable_or_null(40) ptr @calloc(i64 noundef 1, i64 noundef 40) #13
  %10 = icmp eq ptr %9, null
  br i1 %10, label %archive_write_set_format_ar.exit, label %11

archive_write_set_format_ar.exit:                 ; preds = %8
  tail call void (ptr, i32, ptr, ...) @archive_set_error(ptr noundef nonnull %0, i32 noundef 12, ptr noundef nonnull @.str.4) #12
  br label %20

11:                                               ; preds = %8
  %12 = getelementptr inbounds nuw i8, ptr %0, i64 248
  store ptr %9, ptr %12, align 8, !tbaa !17
  %13 = getelementptr inbounds nuw i8, ptr %0, i64 256
  store ptr @.str.5, ptr %13, align 8, !tbaa !18
  %14 = getelementptr inbounds nuw i8, ptr %0, i64 288
  store ptr @archive_write_ar_header, ptr %14, align 8, !tbaa !19
  %15 = getelementptr inbounds nuw i8, ptr %0, i64 296
  store ptr @archive_write_ar_data, ptr %15, align 8, !tbaa !20
  %16 = getelementptr inbounds nuw i8, ptr %0, i64 304
  store ptr @archive_write_ar_close, ptr %16, align 8, !tbaa !21
  store ptr @archive_write_ar_free, ptr %4, align 8, !tbaa !4
  %17 = getelementptr inbounds nuw i8, ptr %0, i64 280
  store ptr @archive_write_ar_finish_entry, ptr %17, align 8, !tbaa !22
  %18 = getelementptr inbounds nuw i8, ptr %0, i64 16
  store i32 458754, ptr %18, align 8, !tbaa !23
  %19 = getelementptr inbounds nuw i8, ptr %0, i64 24
  store ptr @.str.1, ptr %19, align 8, !tbaa !24
  br label %20

20:                                               ; preds = %archive_write_set_format_ar.exit, %11, %1
  %.1 = phi i32 [ -30, %1 ], [ 0, %11 ], [ -30, %archive_write_set_format_ar.exit ]
  ret i32 %.1
}